Certificate:
    Data:
        Version: 3 (0x2)
        Serial Number: 1000 (0x3e8)
    Signature Algorithm: sha1WithRSAEncryption
        Issuer: C=SE, O=Steria AB, CN=Steria AB EID CA v2
        Validity
            Not Before: Jun 20 10:47:07 2012 GMT
            Not After : Jun 20 10:46:32 2022 GMT
        Subject: C=SE, O=Steria AB, CN=Steria AB EID CA v2
        Subject Public Key Info:
            Public Key Algorithm: rsaEncryption
                Public-Key: (2048 bit)
                Modulus:
                    00:e2:6c:87:da:a8:84:9a:70:b1:3d:3f:8f:c2:4a:
                    85:49:71:c5:04:60:96:84:7b:99:aa:5c:84:7e:81:
                    96:12:4b:5c:d1:8c:cf:02:0f:51:0d:9c:dd:af:3f:
                    6a:22:c3:e4:83:33:b5:02:13:90:16:7d:fa:98:d1:
                    96:83:b9:de:a6:b8:52:1f:d5:64:f0:0f:0f:66:ba:
                    8b:43:1b:d1:7f:30:37:e2:c2:c6:1b:16:8d:ee:47:
                    9f:bf:4e:98:e4:7e:7f:cd:4c:fc:d7:1d:12:e0:0b:
                    44:01:90:1d:e2:58:53:33:2d:94:e5:99:ec:64:fd:
                    fe:f4:5f:68:50:3d:16:7c:7f:5d:50:0e:65:f8:6f:
                    35:04:dc:24:5a:62:1f:0f:11:de:c0:64:52:7e:48:
                    52:5c:2d:b9:c8:b3:d2:f7:75:bd:c5:db:e4:3f:b8:
                    78:6b:c7:ec:d8:40:3b:89:cc:63:7d:69:65:d0:be:
                    63:d1:62:8d:3b:77:71:3a:ed:ca:f6:fd:36:15:29:
                    67:1c:45:fa:ad:db:e1:37:29:fa:1d:93:92:01:d4:
                    eb:b1:13:4b:4a:5c:57:1d:a8:3e:96:87:93:e1:cc:
                    49:a0:80:cb:c2:12:f3:2f:e4:ed:fe:f9:7e:0b:7b:
                    da:2e:ae:a9:6c:69:ad:66:af:a8:85:e7:7a:98:3a:
                    c2:5b
                Exponent: 63739 (0xf8fb)
        X509v3 extensions:
            X509v3 Basic Constraints: 
                CA:TRUE
            Netscape Cert Type: 
                SSL CA
            X509v3 Certificate Policies: 
                Policy: 1.2.752.54.9.2.13.1

            X509v3 Subject Key Identifier: 
                90:80:80:2B:F3:5A:FD:40:DB:33:F8:53:29:3C:A4:D6:D1:EE:8B:28
            X509v3 Key Usage: critical
                Certificate Sign, CRL Sign
    Signature Algorithm: sha1WithRSAEncryption
         b1:0d:d7:1a:51:37:7b:30:3c:12:4b:34:f0:15:e8:a3:05:4e:
         1f:15:01:98:34:17:41:d0:61:2b:17:47:b4:6a:1e:25:14:1e:
         03:91:d7:a1:16:ff:b4:54:83:c8:43:f3:3b:4b:35:56:f1:76:
         7f:99:f7:3b:d4:b7:ec:27:4c:51:be:5f:05:cc:5e:ec:d9:7b:
         e5:bb:b9:d1:58:3d:8f:02:74:f3:7c:e6:93:72:70:7a:89:e6:
         60:ed:d5:df:3a:6d:c6:aa:44:1e:31:d1:11:bc:09:d9:64:a6:
         ab:24:3e:c3:f8:ba:c5:a3:f4:ec:d7:95:65:52:f9:49:3f:fa:
         5c:41:e5:25:76:bb:ff:ef:18:8f:69:d7:d0:d8:7d:34:61:cc:
         b5:88:99:2c:c8:d4:72:85:18:bf:53:66:cc:52:d0:16:2c:f9:
         0b:15:4a:f5:87:4d:68:b9:7f:c3:0f:8e:46:c1:42:3b:55:8c:
         de:6a:15:56:3c:95:df:5c:07:01:3a:d0:01:9c:2a:ed:97:5e:
         62:79:54:e4:49:bf:f1:c5:5f:ac:0a:7d:28:0d:d2:67:5d:0c:
         4f:0b:b5:92:5d:ac:61:2c:10:17:a5:e0:43:6b:fc:b7:ba:58:
         87:c7:be:50:fe:c9:bd:93:7f:20:bd:8b:77:87:2a:94:63:77:
         b9:28:ff:fc
-----BEGIN CERTIFICATE-----
MIIDYzCCAkugAwIBAgICA+gwDQYJKoZIhvcNAQEFBQAwPzELMAkGA1UEBhMCU0Ux
EjAQBgNVBAoTCVN0ZXJpYSBBQjEcMBoGA1UEAxMTU3RlcmlhIEFCIEVJRCBDQSB2
MjAeFw0xMjA2MjAxMDQ3MDdaFw0yMjA2MjAxMDQ2MzJaMD8xCzAJBgNVBAYTAlNF
MRIwEAYDVQQKEwlTdGVyaWEgQUIxHDAaBgNVBAMTE1N0ZXJpYSBBQiBFSUQgQ0Eg
djIwggEiMA0GCSqGSIb3DQEBAQUAA4IBDwAwggEKAoIBAQDibIfaqISacLE9P4/C
SoVJccUEYJaEe5mqXIR+gZYSS1zRjM8CD1ENnN2vP2oiw+SDM7UCE5AWffqY0ZaD
ud6muFIf1WTwDw9muotDG9F/MDfiwsYbFo3uR5+/Tpjkfn/NTPzXHRLgC0QBkB3i
WFMzLZTlmexk/f70X2hQPRZ8f11QDmX4bzUE3CRaYh8PEd7AZFJ+SFJcLbnIs9L3
db3F2+Q/uHhrx+zYQDuJzGN9aWXQvmPRYo07d3E67cr2/TYVKWccRfqt2+E3Kfod
k5IB1OuxE0tKXFcdqD6Wh5PhzEmggMvCEvMv5O3++X4Le9ourqlsaa1mr6iF53qY
OsJbAgMA+PujaTBnMAwGA1UdEwQFMAMBAf8wEQYJYIZIAYb4QgEBBAQDAgIEMBUG
A1UdIAQOMAwwCgYIKoVwNgkCDQEwHQYDVR0OBBYEFJCAgCvzWv1A2zP4Uyk8pNbR
7osoMA4GA1UdDwEB/wQEAwIBBjANBgkqhkiG9w0BAQUFAAOCAQEAsQ3XGlE3ezA8
Eks08BXoowVOHxUBmDQXQdBhKxdHtGoeJRQeA5HXoRb/tFSDyEPzO0s1VvF2f5n3
O9S37CdMUb5fBcxe7Nl75bu50Vg9jwJ083zmk3JweonmYO3V3zptxqpEHjHREbwJ
2WSmqyQ+w/i6xaP07NeVZVL5ST/6XEHlJXa7/+8Yj2nX0Nh9NGHMtYiZLMjUcoUY
v1NmzFLQFiz5CxVK9YdNaLl/ww+ORsFCO1WM3moVVjyV31wHATrQAZwq7ZdeYnlU
5Em/8cVfrAp9KA3SZ10MTwu1kl2sYSwQF6XgQ2v8t7pYh8e+UP7JvZN/IL2Ld4cq
lGN3uSj//A==
-----END CERTIFICATE-----
