Certificate:
    Data:
        Version: 3 (0x2)
        Serial Number: 1000 (0x3e8)
        Signature Algorithm: sha1WithRSAEncryption
        Issuer: C=SE, O=Steria AB, CN=Steria AB EID CA v1
        Validity
            Not Before: Sep  3 08:28:22 2004 GMT
            Not After : Sep  3 08:27:27 2014 GMT
        Subject: C=SE, O=Steria AB, CN=Steria AB EID CA v1
        Subject Public Key Info:
            Public Key Algorithm: rsaEncryption
            RSA Public Key: (1024 bit)
                Modulus (1024 bit):
                    00:ee:84:4b:6b:5a:fd:04:60:9d:ab:c7:6b:34:28:
                    c3:cd:1a:d3:d3:0f:3d:04:99:76:b5:11:04:27:ae:
                    f9:78:da:a2:55:ba:a8:09:d0:84:36:07:e9:66:3c:
                    72:88:91:37:b6:8b:c7:8e:11:a1:93:ca:4f:f7:13:
                    88:4d:4e:3c:68:36:64:ca:52:9c:b9:35:f9:2f:b2:
                    84:35:49:9f:99:0c:0a:f2:30:a4:0e:9e:4b:a8:d9:
                    9d:dc:28:f4:f0:e6:8a:ea:48:06:3a:e9:bd:c6:64:
                    5d:db:cf:dc:35:82:8f:d9:86:8b:57:30:e5:38:75:
                    fa:a1:4e:e2:08:dc:d9:62:65
                Exponent: 65537 (0x10001)
        X509v3 extensions:
            X509v3 Basic Constraints: 
                CA:TRUE
            Netscape Cert Type: 
                SSL CA
            X509v3 Certificate Policies: 
                Policy: 1.2.752.54.9.2.13.1

            X509v3 Subject Key Identifier: 
                33:9D:AA:6C:63:B4:74:6D:15:BB:7A:B5:1D:BE:F3:20:07:FD:10:86
            X509v3 Key Usage: critical
                Certificate Sign, CRL Sign
    Signature Algorithm: sha1WithRSAEncryption
        e4:4f:ef:c0:f9:7f:a9:c8:73:be:a4:a7:28:ae:08:8b:6c:c1:
        62:9e:26:f8:71:87:83:cb:a3:ec:4f:63:b9:14:6e:58:b3:eb:
        b4:7d:f8:3d:d8:cf:81:23:92:f5:7d:d4:23:de:05:80:8e:e9:
        23:cd:2c:b9:d6:fd:55:fb:c8:e2:e6:af:c3:99:a1:d9:ec:18:
        2c:f7:1c:fd:04:07:1b:e9:6f:e8:5c:77:d8:b2:f8:80:d4:c5:
        bd:77:70:e3:86:c2:7c:48:69:e9:25:35:94:66:00:73:80:4f:
        e5:49:a8:e6:fd:a2:79:b7:c8:07:5b:25:67:e1:80:3d:df:5f:
        dd:f2
-----BEGIN CERTIFICATE-----
MIICXjCCAcegAwIBAgICA+gwDQYJKoZIhvcNAQEFBQAwPzELMAkGA1UEBhMCU0Ux
EjAQBgNVBAoTCVN0ZXJpYSBBQjEcMBoGA1UEAxMTU3RlcmlhIEFCIEVJRCBDQSB2
MTAeFw0wNDA5MDMwODI4MjJaFw0xNDA5MDMwODI3MjdaMD8xCzAJBgNVBAYTAlNF
MRIwEAYDVQQKEwlTdGVyaWEgQUIxHDAaBgNVBAMTE1N0ZXJpYSBBQiBFSUQgQ0Eg
djEwgZ8wDQYJKoZIhvcNAQEBBQADgY0AMIGJAoGBAO6ES2ta/QRgnavHazQow80a
09MPPQSZdrURBCeu+XjaolW6qAnQhDYH6WY8coiRN7aLx44RoZPKT/cTiE1OPGg2
ZMpSnLk1+S+yhDVJn5kMCvIwpA6eS6jZndwo9PDmiupIBjrpvcZkXdvP3DWCj9mG
i1cw5Th1+qFO4gjc2WJlAgMBAAGjaTBnMAwGA1UdEwQFMAMBAf8wEQYJYIZIAYb4
QgEBBAQDAgIEMBUGA1UdIAQOMAwwCgYIKoVwNgkCDQEwHQYDVR0OBBYEFDOdqmxj
tHRtFbt6tR2+8yAH/RCGMA4GA1UdDwEB/wQEAwIBBjANBgkqhkiG9w0BAQUFAAOB
gQDkT+/A+X+pyHO+pKcorgiLbMFinib4cYeDy6PsT2O5FG5Ys+u0ffg92M+BI5L1
fdQj3gWAjukjzSy51v1V+8ji5q/DmaHZ7Bgs9xz9BAcb6W/oXHfYsviA1MW9d3Dj
hsJ8SGnpJTWUZgBzgE/lSajm/aJ5t8gHWyVn4YA931/d8g==
-----END CERTIFICATE-----

